; Function Attrs: mustprogress nofree norecurse nosync nounwind willreturn memory(argmem: read) uwtable
define hidden noundef zeroext i1 @_ZNK8facebook6hermes7tracing10SynthTrace11ReturnMixineqERKS3_(ptr nocapture noundef nonnull readonly align 8 dereferenceable(16) %this, ptr nocapture noundef nonnull readonly align 8 dereferenceable(16) %that) local_unnamed_addr #0 align 2 {
entry:
  %0 = load i32, ptr %this, align 8
  %1 = load i32, ptr %that, align 8
  %cmp.not.i = icmp eq i32 %0, %1
  br i1 %cmp.not.i, label %if.end.i, label %_ZNK8facebook6hermes7tracing10SynthTrace10TraceValueeqERKS3_.exit

if.end.i:                                         ; preds = %entry
  switch i32 %0, label %_ZNK8facebook6hermes7tracing10SynthTrace10TraceValueeqERKS3_.exit [
    i32 2, label %sw.bb.i
    i32 3, label %sw.bb8.i
    i32 4, label %sw.bb12.i
    i32 5, label %sw.bb12.i
    i32 6, label %sw.bb12.i
  ]

sw.bb.i:                                          ; preds = %if.end.i
  %val_.i = getelementptr inbounds i8, ptr %this, i64 8
  %2 = load i8, ptr %val_.i, align 8
  %val_4.i = getelementptr inbounds i8, ptr %that, i64 8
  %3 = load i8, ptr %val_4.i, align 8
  %4 = xor i8 %3, %2
  %5 = and i8 %4, 1
  %cmp7.i = icmp eq i8 %5, 0
  br label %_ZNK8facebook6hermes7tracing10SynthTrace10TraceValueeqERKS3_.exit

sw.bb8.i:                                         ; preds = %if.end.i
  %val_9.i = getelementptr inbounds i8, ptr %this, i64 8
  %6 = load double, ptr %val_9.i, align 8
  %val_10.i = getelementptr inbounds i8, ptr %that, i64 8
  %7 = load double, ptr %val_10.i, align 8
  %cmp11.i = fcmp oeq double %6, %7
  br label %_ZNK8facebook6hermes7tracing10SynthTrace10TraceValueeqERKS3_.exit

sw.bb12.i:                                        ; preds = %if.end.i, %if.end.i, %if.end.i
  %val_13.i = getelementptr inbounds i8, ptr %this, i64 8
  %8 = load i64, ptr %val_13.i, align 8
  %val_14.i = getelementptr inbounds i8, ptr %that, i64 8
  %9 = load i64, ptr %val_14.i, align 8
  %cmp15.i = icmp eq i64 %8, %9
  br label %_ZNK8facebook6hermes7tracing10SynthTrace10TraceValueeqERKS3_.exit

_ZNK8facebook6hermes7tracing10SynthTrace10TraceValueeqERKS3_.exit: ; preds = %entry, %if.end.i, %sw.bb.i, %sw.bb8.i, %sw.bb12.i
  %retval.0.i = phi i1 [ %cmp15.i, %sw.bb12.i ], [ %cmp11.i, %sw.bb8.i ], [ %cmp7.i, %sw.bb.i ], [ false, %entry ], [ true, %if.end.i ]
  ret i1 %retval.0.i
}